target datalayout = "e-m:e-p270:32:32-p271:32:32-p272:64:64-i64:64-i128:128-f80:128-n8:16:32:64-S128"
target triple = "x86_64-pc-linux-gnu"

%struct.X509_algor_st = type { ptr, ptr }
%struct.pbe_suite = type { i32, ptr, ptr, ptr, i32 }
%struct.evp_cipher_ctx_st = type { ptr, ptr, ptr, i32, i32, i32, [16 x i8], [16 x i8], [32 x i8], i32, i32, i32, i32, [32 x i8] }

@.str = private unnamed_addr constant [124 x i8] c"generated/home/dtcxzyw/WorkSpace/Projects/compilers/llvm-opt-benchmark/bench/libquic/libquic/boringssl/crypto/pkcs8/pkcs8.c\00", align 1
@.str.2 = private unnamed_addr constant [5 x i8] c"NULL\00", align 1
@.str.3 = private unnamed_addr constant [6 x i8] c"TYPE=\00", align 1

; Function Attrs: nounwind uwtable
define internal ptr @get_pbe_suite(i32 noundef %0) #0 {
  %2 = alloca ptr, align 8
  %3 = alloca i32, align 4
  %4 = alloca i32, align 4
  %5 = alloca i32, align 4
  store i32 %0, ptr %3, align 4, !tbaa !13
  call void @llvm.lifetime.start.p0(i64 4, ptr %4) #8
  store i32 0, ptr %4, align 4, !tbaa !13
  br label %6

6:                                                ; preds = %23, %1
  %7 = load i32, ptr %4, align 4, !tbaa !13
  %8 = zext i32 %7 to i64
  %9 = icmp ult i64 %8, 4
  br i1 %9, label %10, label %26

10:                                               ; preds = %6
  %11 = load i32, ptr %4, align 4, !tbaa !13
  %12 = zext i32 %11 to i64
  %13 = getelementptr inbounds nuw [4 x %struct.pbe_suite], ptr @kBuiltinPBE, i64 0, i64 %12
  %14 = getelementptr inbounds nuw %struct.pbe_suite, ptr %13, i32 0, i32 0
  %15 = load i32, ptr %14, align 8, !tbaa !97
  %16 = load i32, ptr %3, align 4, !tbaa !13
  %17 = icmp eq i32 %15, %16
  br i1 %17, label %18, label %22

18:                                               ; preds = %10
  %19 = load i32, ptr %4, align 4, !tbaa !13
  %20 = zext i32 %19 to i64
  %21 = getelementptr inbounds nuw [4 x %struct.pbe_suite], ptr @kBuiltinPBE, i64 0, i64 %20
  store ptr %21, ptr %2, align 8
  store i32 1, ptr %5, align 4
  br label %27

22:                                               ; preds = %10
  br label %23

23:                                               ; preds = %22
  %24 = load i32, ptr %4, align 4, !tbaa !13
  %25 = add i32 %24, 1
  store i32 %25, ptr %4, align 4, !tbaa !13
  br label %6, !llvm.loop !98

26:                                               ; preds = %6
  store ptr null, ptr %2, align 8
  store i32 1, ptr %5, align 4
  br label %27

27:                                               ; preds = %26, %18
  call void @llvm.lifetime.end.p0(i64 4, ptr %4) #8
  %28 = load ptr, ptr %2, align 8
  ret ptr %28
}

; Function Attrs: nounwind uwtable
define internal i32 @pbe_cipher_init(ptr noundef %0, ptr noundef %1, i64 noundef %2, ptr noundef %3, ptr noundef %4, i32 noundef %5) #0 {
  %7 = alloca i32, align 4
  %8 = alloca ptr, align 8
  %9 = alloca ptr, align 8
  %10 = alloca i64, align 8
  %11 = alloca ptr, align 8
  %12 = alloca ptr, align 8
  %13 = alloca i32, align 4
  %14 = alloca ptr, align 8
  %15 = alloca ptr, align 8
  %16 = alloca ptr, align 8
  %17 = alloca [80 x i8], align 16
  %18 = alloca i32, align 4
  store ptr %0, ptr %8, align 8, !tbaa !110
  store ptr %1, ptr %9, align 8, !tbaa !11
  store i64 %2, ptr %10, align 8, !tbaa !15
  store ptr %3, ptr %11, align 8, !tbaa !101
  store ptr %4, ptr %12, align 8, !tbaa !99
  store i32 %5, ptr %13, align 4, !tbaa !13
  call void @llvm.lifetime.start.p0(i64 8, ptr %14) #8
  call void @llvm.lifetime.start.p0(i64 8, ptr %15) #8
  call void @llvm.lifetime.start.p0(i64 8, ptr %16) #8
  %19 = load ptr, ptr %8, align 8, !tbaa !110
  %20 = call i32 @OBJ_obj2nid(ptr noundef %19)
  %21 = call ptr @get_pbe_suite(i32 noundef %20)
  store ptr %21, ptr %16, align 8, !tbaa !31
  %22 = load ptr, ptr %16, align 8, !tbaa !31
  %23 = icmp eq ptr %22, null
  br i1 %23, label %24, label %36

24:                                               ; preds = %6
  call void @llvm.lifetime.start.p0(i64 80, ptr %17) #8
  call void @ERR_put_error(i32 noundef 19, i32 noundef 0, i32 noundef 119, ptr noundef @.str, i32 noundef 374)
  %25 = load ptr, ptr %8, align 8, !tbaa !110
  %26 = icmp ne ptr %25, null
  br i1 %26, label %30, label %27

27:                                               ; preds = %24
  %28 = getelementptr inbounds [80 x i8], ptr %17, i64 0, i64 0
  %29 = call ptr @strncpy(ptr noundef %28, ptr noundef @.str.2, i64 noundef 80) #8
  br label %34

30:                                               ; preds = %24
  %31 = getelementptr inbounds [80 x i8], ptr %17, i64 0, i64 0
  %32 = load ptr, ptr %8, align 8, !tbaa !110
  %33 = call i32 @i2t_ASN1_OBJECT(ptr noundef %31, i32 noundef 80, ptr noundef %32)
  br label %34

34:                                               ; preds = %30, %27
  %35 = getelementptr inbounds [80 x i8], ptr %17, i64 0, i64 0
  call void (i32, ...) @ERR_add_error_data(i32 noundef 2, ptr noundef @.str.3, ptr noundef %35)
  store i32 0, ptr %7, align 4
  store i32 1, ptr %18, align 4
  call void @llvm.lifetime.end.p0(i64 80, ptr %17) #8
  br label %81

36:                                               ; preds = %6
  %37 = load ptr, ptr %16, align 8, !tbaa !31
  %38 = getelementptr inbounds nuw %struct.pbe_suite, ptr %37, i32 0, i32 1
  %39 = load ptr, ptr %38, align 8, !tbaa !111
  %40 = icmp eq ptr %39, null
  br i1 %40, label %41, label %42

41:                                               ; preds = %36
  store ptr null, ptr %14, align 8, !tbaa !44
  br label %51

42:                                               ; preds = %36
  %43 = load ptr, ptr %16, align 8, !tbaa !31
  %44 = getelementptr inbounds nuw %struct.pbe_suite, ptr %43, i32 0, i32 1
  %45 = load ptr, ptr %44, align 8, !tbaa !111
  %46 = call ptr %45()
  store ptr %46, ptr %14, align 8, !tbaa !44
  %47 = load ptr, ptr %14, align 8, !tbaa !44
  %48 = icmp ne ptr %47, null
  br i1 %48, label %50, label %49

49:                                               ; preds = %42
  call void @ERR_put_error(i32 noundef 19, i32 noundef 0, i32 noundef 120, ptr noundef @.str, i32 noundef 389)
  store i32 0, ptr %7, align 4
  store i32 1, ptr %18, align 4
  br label %81

50:                                               ; preds = %42
  br label %51

51:                                               ; preds = %50, %41
  %52 = load ptr, ptr %16, align 8, !tbaa !31
  %53 = getelementptr inbounds nuw %struct.pbe_suite, ptr %52, i32 0, i32 2
  %54 = load ptr, ptr %53, align 8, !tbaa !112
  %55 = icmp eq ptr %54, null
  br i1 %55, label %56, label %57

56:                                               ; preds = %51
  store ptr null, ptr %15, align 8, !tbaa !57
  br label %66

57:                                               ; preds = %51
  %58 = load ptr, ptr %16, align 8, !tbaa !31
  %59 = getelementptr inbounds nuw %struct.pbe_suite, ptr %58, i32 0, i32 2
  %60 = load ptr, ptr %59, align 8, !tbaa !112
  %61 = call ptr %60()
  store ptr %61, ptr %15, align 8, !tbaa !57
  %62 = load ptr, ptr %15, align 8, !tbaa !57
  %63 = icmp ne ptr %62, null
  br i1 %63, label %65, label %64

64:                                               ; preds = %57
  call void @ERR_put_error(i32 noundef 19, i32 noundef 0, i32 noundef 122, ptr noundef @.str, i32 noundef 399)
  store i32 0, ptr %7, align 4
  store i32 1, ptr %18, align 4
  br label %81

65:                                               ; preds = %57
  br label %66

66:                                               ; preds = %65, %56
  %67 = load ptr, ptr %16, align 8, !tbaa !31
  %68 = getelementptr inbounds nuw %struct.pbe_suite, ptr %67, i32 0, i32 3
  %69 = load ptr, ptr %68, align 8, !tbaa !113
  %70 = load ptr, ptr %12, align 8, !tbaa !99
  %71 = load ptr, ptr %9, align 8, !tbaa !11
  %72 = load i64, ptr %10, align 8, !tbaa !15
  %73 = load ptr, ptr %11, align 8, !tbaa !101
  %74 = load ptr, ptr %14, align 8, !tbaa !44
  %75 = load ptr, ptr %15, align 8, !tbaa !57
  %76 = load i32, ptr %13, align 4, !tbaa !13
  %77 = call i32 %69(ptr noundef %70, ptr noundef %71, i64 noundef %72, ptr noundef %73, ptr noundef %74, ptr noundef %75, i32 noundef %76)
  %78 = icmp ne i32 %77, 0
  br i1 %78, label %80, label %79

79:                                               ; preds = %66
  call void @ERR_put_error(i32 noundef 19, i32 noundef 0, i32 noundef 109, ptr noundef @.str, i32 noundef 406)
  store i32 0, ptr %7, align 4
  store i32 1, ptr %18, align 4
  br label %81

80:                                               ; preds = %66
  store i32 1, ptr %7, align 4
  store i32 1, ptr %18, align 4
  br label %81

81:                                               ; preds = %80, %79, %64, %49, %34
  call void @llvm.lifetime.end.p0(i64 8, ptr %16) #8
  call void @llvm.lifetime.end.p0(i64 8, ptr %15) #8
  call void @llvm.lifetime.end.p0(i64 8, ptr %14) #8
  %82 = load i32, ptr %7, align 4
  ret i32 %82
}

; Function Attrs: nounwind uwtable
define internal i32 @pbe_crypt(ptr noundef %0, ptr noundef %1, i64 noundef %2, ptr noundef %3, i64 noundef %4, ptr noundef %5, ptr noundef %6, i32 noundef %7) #0 {
  %9 = alloca i32, align 4
  %10 = alloca ptr, align 8
  %11 = alloca ptr, align 8
  %12 = alloca i64, align 8
  %13 = alloca ptr, align 8
  %14 = alloca i64, align 8
  %15 = alloca ptr, align 8
  %16 = alloca ptr, align 8
  %17 = alloca i32, align 4
  %18 = alloca ptr, align 8
  %19 = alloca i32, align 4
  %20 = alloca i32, align 4
  %21 = alloca %struct.evp_cipher_ctx_st, align 8
  %22 = alloca i32, align 4
  %23 = alloca i32, align 4
  store ptr %0, ptr %10, align 8, !tbaa !36
  store ptr %1, ptr %11, align 8, !tbaa !11
  store i64 %2, ptr %12, align 8, !tbaa !15
  store ptr %3, ptr %13, align 8, !tbaa !11
  store i64 %4, ptr %14, align 8, !tbaa !15
  store ptr %5, ptr %15, align 8, !tbaa !27
  store ptr %6, ptr %16, align 8, !tbaa !29
  store i32 %7, ptr %17, align 4, !tbaa !13
  call void @llvm.lifetime.start.p0(i64 8, ptr %18) #8
  call void @llvm.lifetime.start.p0(i64 4, ptr %19) #8
  call void @llvm.lifetime.start.p0(i64 4, ptr %20) #8
  store i32 0, ptr %20, align 4, !tbaa !13
  call void @llvm.lifetime.start.p0(i64 152, ptr %21) #8
  call void @llvm.lifetime.start.p0(i64 4, ptr %22) #8
  call void @EVP_CIPHER_CTX_init(ptr noundef %21)
  %24 = load ptr, ptr %10, align 8, !tbaa !36
  %25 = getelementptr inbounds nuw %struct.X509_algor_st, ptr %24, i32 0, i32 0
  %26 = load ptr, ptr %25, align 8, !tbaa !21
  %27 = load ptr, ptr %11, align 8, !tbaa !11
  %28 = load i64, ptr %12, align 8, !tbaa !15
  %29 = load ptr, ptr %10, align 8, !tbaa !36
  %30 = getelementptr inbounds nuw %struct.X509_algor_st, ptr %29, i32 0, i32 1
  %31 = load ptr, ptr %30, align 8, !tbaa !109
  %32 = load i32, ptr %17, align 4, !tbaa !13
  %33 = call i32 @pbe_cipher_init(ptr noundef %26, ptr noundef %27, i64 noundef %28, ptr noundef %31, ptr noundef %21, i32 noundef %32)
  %34 = icmp ne i32 %33, 0
  br i1 %34, label %36, label %35

35:                                               ; preds = %8
  call void @ERR_put_error(i32 noundef 19, i32 noundef 0, i32 noundef 121, ptr noundef @.str, i32 noundef 427)
  store i32 0, ptr %9, align 4
  store i32 1, ptr %23, align 4
  br label %86

36:                                               ; preds = %8
  %37 = call i32 @EVP_CIPHER_CTX_block_size(ptr noundef %21)
  store i32 %37, ptr %22, align 4, !tbaa !13
  %38 = load i64, ptr %14, align 8, !tbaa !15
  %39 = load i32, ptr %22, align 4, !tbaa !13
  %40 = zext i32 %39 to i64
  %41 = add i64 %38, %40
  %42 = load i64, ptr %14, align 8, !tbaa !15
  %43 = icmp ult i64 %41, %42
  br i1 %43, label %44, label %45

44:                                               ; preds = %36
  call void @ERR_put_error(i32 noundef 19, i32 noundef 0, i32 noundef 118, ptr noundef @.str, i32 noundef 433)
  br label %83

45:                                               ; preds = %36
  %46 = load i64, ptr %14, align 8, !tbaa !15
  %47 = load i32, ptr %22, align 4, !tbaa !13
  %48 = zext i32 %47 to i64
  %49 = add i64 %46, %48
  %50 = call noalias ptr @malloc(i64 noundef %49) #10
  store ptr %50, ptr %18, align 8, !tbaa !11
  %51 = load ptr, ptr %18, align 8, !tbaa !11
  %52 = icmp eq ptr %51, null
  br i1 %52, label %53, label %54

53:                                               ; preds = %45
  call void @ERR_put_error(i32 noundef 19, i32 noundef 0, i32 noundef 65, ptr noundef @.str, i32 noundef 439)
  br label %83

54:                                               ; preds = %45
  %55 = load ptr, ptr %18, align 8, !tbaa !11
  %56 = load ptr, ptr %13, align 8, !tbaa !11
  %57 = load i64, ptr %14, align 8, !tbaa !15
  %58 = trunc i64 %57 to i32
  %59 = call i32 @EVP_CipherUpdate(ptr noundef %21, ptr noundef %55, ptr noundef %19, ptr noundef %56, i32 noundef %58)
  %60 = icmp ne i32 %59, 0
  br i1 %60, label %63, label %61

61:                                               ; preds = %54
  %62 = load ptr, ptr %18, align 8, !tbaa !11
  call void @free(ptr noundef %62) #8
  call void @ERR_put_error(i32 noundef 19, i32 noundef 0, i32 noundef 6, ptr noundef @.str, i32 noundef 445)
  br label %83

63:                                               ; preds = %54
  %64 = load i32, ptr %19, align 4, !tbaa !13
  %65 = sext i32 %64 to i64
  %66 = load ptr, ptr %16, align 8, !tbaa !29
  store i64 %65, ptr %66, align 8, !tbaa !15
  %67 = load ptr, ptr %18, align 8, !tbaa !11
  %68 = load i32, ptr %19, align 4, !tbaa !13
  %69 = sext i32 %68 to i64
  %70 = getelementptr inbounds i8, ptr %67, i64 %69
  %71 = call i32 @EVP_CipherFinal_ex(ptr noundef %21, ptr noundef %70, ptr noundef %19)
  %72 = icmp ne i32 %71, 0
  br i1 %72, label %75, label %73

73:                                               ; preds = %63
  %74 = load ptr, ptr %18, align 8, !tbaa !11
  call void @free(ptr noundef %74) #8
  call void @ERR_put_error(i32 noundef 19, i32 noundef 0, i32 noundef 6, ptr noundef @.str, i32 noundef 452)
  br label %83

75:                                               ; preds = %63
  %76 = load i32, ptr %19, align 4, !tbaa !13
  %77 = sext i32 %76 to i64
  %78 = load ptr, ptr %16, align 8, !tbaa !29
  %79 = load i64, ptr %78, align 8, !tbaa !15
  %80 = add i64 %79, %77
  store i64 %80, ptr %78, align 8, !tbaa !15
  %81 = load ptr, ptr %18, align 8, !tbaa !11
  %82 = load ptr, ptr %15, align 8, !tbaa !27
  store ptr %81, ptr %82, align 8, !tbaa !11
  store i32 1, ptr %20, align 4, !tbaa !13
  br label %83

83:                                               ; preds = %75, %73, %61, %53, %44
  %84 = call i32 @EVP_CIPHER_CTX_cleanup(ptr noundef %21)
  %85 = load i32, ptr %20, align 4, !tbaa !13
  store i32 %85, ptr %9, align 4
  store i32 1, ptr %23, align 4
  br label %86

86:                                               ; preds = %83, %35
  call void @llvm.lifetime.end.p0(i64 4, ptr %22) #8
  call void @llvm.lifetime.end.p0(i64 152, ptr %21) #8
  call void @llvm.lifetime.end.p0(i64 4, ptr %20) #8
  call void @llvm.lifetime.end.p0(i64 4, ptr %19) #8
  call void @llvm.lifetime.end.p0(i64 8, ptr %18) #8
  %87 = load i32, ptr %9, align 4
  ret i32 %87
}