; Function Attrs: nounwind uwtable
define internal fastcc range(i32 0, 2) i32 @pbe_crypt(ptr noundef readonly captures(none) %0, ptr noundef %1, i64 noundef %2, ptr noundef %3, i64 noundef %4, ptr noundef nonnull writeonly captures(none) %5, ptr noundef nonnull captures(none) %6, i32 noundef range(i32 0, 2) %7) unnamed_addr #0 {
  %9 = alloca [80 x i8], align 16
  %10 = alloca i32, align 4
  %11 = alloca %struct.evp_cipher_ctx_st, align 8
  call void @llvm.lifetime.start.p0(i64 4, ptr nonnull %10) #12
  call void @llvm.lifetime.start.p0(i64 152, ptr nonnull %11) #12
  call void @EVP_CIPHER_CTX_init(ptr noundef nonnull %11) #12
  %12 = load ptr, ptr %0, align 8, !tbaa !17
  %13 = getelementptr inbounds nuw i8, ptr %0, i64 8
  %14 = load ptr, ptr %13, align 8, !tbaa !66
  %15 = call i32 @OBJ_obj2nid(ptr noundef %12) #12
  br label %17

16:                                               ; preds = %17
  %indvars.iv.next.i.i = add nuw nsw i64 %indvars.iv.i.i, 1
  %exitcond.not.i.i = icmp eq i64 %indvars.iv.next.i.i, 4
  br i1 %exitcond.not.i.i, label %21, label %17, !llvm.loop !21

17:                                               ; preds = %16, %8
  %indvars.iv.i.i = phi i64 [ 0, %8 ], [ %indvars.iv.next.i.i, %16 ]
  %18 = getelementptr inbounds nuw [4 x %struct.pbe_suite], ptr @kBuiltinPBE, i64 0, i64 %indvars.iv.i.i
  %19 = load i32, ptr %18, align 8, !tbaa !23
  %20 = icmp eq i32 %19, %15
  br i1 %20, label %get_pbe_suite.exit.i, label %16

21:                                               ; preds = %16
  call void @llvm.lifetime.start.p0(i64 80, ptr nonnull %9) #12
  call void @ERR_put_error(i32 noundef 19, i32 noundef 0, i32 noundef 119, ptr noundef nonnull @.str, i32 noundef 374) #12
  %.not28.i = icmp eq ptr %12, null
  br i1 %.not28.i, label %22, label %23

22:                                               ; preds = %21
  call void @llvm.memcpy.p0.p0.i64(ptr noundef nonnull align 16 dereferenceable(80) %9, ptr noundef nonnull align 1 dereferenceable(80) @str, i64 noundef 80, i1 false) #12
  br label %25

23:                                               ; preds = %21
  %24 = call i32 @i2t_ASN1_OBJECT(ptr noundef nonnull %9, i32 noundef 80, ptr noundef nonnull %12) #12
  br label %25

25:                                               ; preds = %23, %22
  call void (i32, ...) @ERR_add_error_data(i32 noundef 2, ptr noundef nonnull @.str.3, ptr noundef nonnull %9) #12
  call void @llvm.lifetime.end.p0(i64 80, ptr nonnull %9) #12
  br label %44

get_pbe_suite.exit.i:                             ; preds = %17
  %26 = getelementptr inbounds nuw i8, ptr %18, i64 8
  %27 = load ptr, ptr %26, align 8, !tbaa !67
  %28 = icmp eq ptr %27, null
  br i1 %28, label %32, label %29

29:                                               ; preds = %get_pbe_suite.exit.i
  %30 = call ptr %27() #12
  %.not.i = icmp eq ptr %30, null
  br i1 %.not.i, label %31, label %32

31:                                               ; preds = %29
  call void @ERR_put_error(i32 noundef 19, i32 noundef 0, i32 noundef 120, ptr noundef nonnull @.str, i32 noundef 389) #12
  br label %44

32:                                               ; preds = %29, %get_pbe_suite.exit.i
  %.019.i = phi ptr [ %30, %29 ], [ null, %get_pbe_suite.exit.i ]
  %33 = getelementptr inbounds nuw i8, ptr %18, i64 16
  %34 = load ptr, ptr %33, align 8, !tbaa !68
  %35 = icmp eq ptr %34, null
  br i1 %35, label %39, label %36

36:                                               ; preds = %32
  %37 = call ptr %34() #12
  %.not26.i = icmp eq ptr %37, null
  br i1 %.not26.i, label %38, label %39

38:                                               ; preds = %36
  call void @ERR_put_error(i32 noundef 19, i32 noundef 0, i32 noundef 122, ptr noundef nonnull @.str, i32 noundef 399) #12
  br label %44

39:                                               ; preds = %36, %32
  %.018.i = phi ptr [ %37, %36 ], [ null, %32 ]
  %40 = getelementptr inbounds nuw i8, ptr %18, i64 24
  %41 = load ptr, ptr %40, align 8, !tbaa !69
  %42 = call i32 %41(ptr noundef nonnull %11, ptr noundef %1, i64 noundef %2, ptr noundef %14, ptr noundef %.019.i, ptr noundef %.018.i, i32 noundef range(i32 0, 2) %7) #12
  %.not27.i = icmp eq i32 %42, 0
  br i1 %.not27.i, label %43, label %pbe_cipher_init.exit

43:                                               ; preds = %39
  call void @ERR_put_error(i32 noundef 19, i32 noundef 0, i32 noundef 109, ptr noundef nonnull @.str, i32 noundef 406) #12
  br label %44

44:                                               ; preds = %25, %43, %38, %31
  call void @ERR_put_error(i32 noundef 19, i32 noundef 0, i32 noundef 121, ptr noundef nonnull @.str, i32 noundef 427) #12
  br label %71

pbe_cipher_init.exit:                             ; preds = %39
  %45 = call i32 @EVP_CIPHER_CTX_block_size(ptr noundef nonnull %11) #12
  %46 = zext i32 %45 to i64
  %47 = add i64 %4, %46
  %48 = icmp ult i64 %47, %4
  br i1 %48, label %49, label %50

49:                                               ; preds = %pbe_cipher_init.exit
  call void @ERR_put_error(i32 noundef 19, i32 noundef 0, i32 noundef 118, ptr noundef nonnull @.str, i32 noundef 433) #12
  br label %69

50:                                               ; preds = %pbe_cipher_init.exit
  %51 = call noalias ptr @malloc(i64 noundef %47) #14
  %52 = icmp eq ptr %51, null
  br i1 %52, label %53, label %54

53:                                               ; preds = %50
  call void @ERR_put_error(i32 noundef 19, i32 noundef 0, i32 noundef 65, ptr noundef nonnull @.str, i32 noundef 439) #12
  br label %69

54:                                               ; preds = %50
  %55 = trunc i64 %4 to i32
  %56 = call i32 @EVP_CipherUpdate(ptr noundef nonnull %11, ptr noundef nonnull %51, ptr noundef nonnull %10, ptr noundef %3, i32 noundef %55) #12
  %.not26 = icmp eq i32 %56, 0
  br i1 %.not26, label %57, label %58

57:                                               ; preds = %54
  call void @free(ptr noundef nonnull %51) #12
  call void @ERR_put_error(i32 noundef 19, i32 noundef 0, i32 noundef 6, ptr noundef nonnull @.str, i32 noundef 445) #12
  br label %69

58:                                               ; preds = %54
  %59 = load i32, ptr %10, align 4, !tbaa !42
  %60 = sext i32 %59 to i64
  store i64 %60, ptr %6, align 8, !tbaa !11
  %61 = getelementptr inbounds i8, ptr %51, i64 %60
  %62 = call i32 @EVP_CipherFinal_ex(ptr noundef nonnull %11, ptr noundef nonnull %61, ptr noundef nonnull %10) #12
  %.not27 = icmp eq i32 %62, 0
  br i1 %.not27, label %63, label %64

63:                                               ; preds = %58
  call void @free(ptr noundef nonnull %51) #12
  call void @ERR_put_error(i32 noundef 19, i32 noundef 0, i32 noundef 6, ptr noundef nonnull @.str, i32 noundef 452) #12
  br label %69

64:                                               ; preds = %58
  %65 = load i32, ptr %10, align 4, !tbaa !42
  %66 = sext i32 %65 to i64
  %67 = load i64, ptr %6, align 8, !tbaa !11
  %68 = add i64 %67, %66
  store i64 %68, ptr %6, align 8, !tbaa !11
  store ptr %51, ptr %5, align 8, !tbaa !6
  br label %69

69:                                               ; preds = %64, %63, %57, %53, %49
  %.022 = phi i32 [ 0, %49 ], [ 0, %53 ], [ 1, %64 ], [ 0, %63 ], [ 0, %57 ]
  %70 = call i32 @EVP_CIPHER_CTX_cleanup(ptr noundef nonnull %11) #12
  br label %71

71:                                               ; preds = %69, %44
  %.0 = phi i32 [ %.022, %69 ], [ 0, %44 ]
  call void @llvm.lifetime.end.p0(i64 152, ptr nonnull %11) #12
  call void @llvm.lifetime.end.p0(i64 4, ptr nonnull %10) #12
  ret i32 %.0
}